target datalayout = "e-m:e-p270:32:32-p271:32:32-p272:64:64-i64:64-i128:128-f80:128-n8:16:32:64-S128"
target triple = "x86_64-pc-linux-gnu"

%struct._lv_obj_t = type { ptr, ptr, ptr, ptr, ptr, %struct.lv_area_t, i32, i16, i16 }
%struct.lv_area_t = type { i32, i32, i32, i32 }
%struct._lv_obj_spec_attr_t = type { ptr, ptr, %struct.lv_event_list_t, %struct.lv_point_t, i32, i32, i16, i16 }
%struct.lv_event_list_t = type { %struct._lv_array_t, i8 }
%struct._lv_array_t = type { ptr, i32, i32, i32, i8 }
%struct.lv_point_t = type { i32, i32 }

; Function Attrs: nounwind uwtable
define i32 @lv_obj_get_scroll_y(ptr noundef %0) #0 {
  %2 = alloca i32, align 4
  %3 = alloca ptr, align 8
  store ptr %0, ptr %3, align 8, !tbaa !3
  %4 = load ptr, ptr %3, align 8, !tbaa !3
  %5 = getelementptr inbounds nuw %struct._lv_obj_t, ptr %4, i32 0, i32 2
  %6 = load ptr, ptr %5, align 8, !tbaa !9
  %7 = icmp eq ptr %6, null
  br i1 %7, label %8, label %9

8:                                                ; preds = %1
  store i32 0, ptr %2, align 4
  br label %17

9:                                                ; preds = %1
  %10 = load ptr, ptr %3, align 8, !tbaa !3
  %11 = getelementptr inbounds nuw %struct._lv_obj_t, ptr %10, i32 0, i32 2
  %12 = load ptr, ptr %11, align 8, !tbaa !9
  %13 = getelementptr inbounds nuw %struct._lv_obj_spec_attr_t, ptr %12, i32 0, i32 3
  %14 = getelementptr inbounds nuw %struct.lv_point_t, ptr %13, i32 0, i32 1
  %15 = load i32, ptr %14, align 4, !tbaa !19
  %16 = sub nsw i32 0, %15
  store i32 %16, ptr %2, align 4
  br label %17

17:                                               ; preds = %9, %8
  %18 = load i32, ptr %2, align 4
  ret i32 %18
}

; Function Attrs: nounwind uwtable
define i32 @lv_obj_get_scroll_x(ptr noundef %0) #0 {
  %2 = alloca i32, align 4
  %3 = alloca ptr, align 8
  store ptr %0, ptr %3, align 8, !tbaa !3
  %4 = load ptr, ptr %3, align 8, !tbaa !3
  %5 = getelementptr inbounds nuw %struct._lv_obj_t, ptr %4, i32 0, i32 2
  %6 = load ptr, ptr %5, align 8, !tbaa !9
  %7 = icmp eq ptr %6, null
  br i1 %7, label %8, label %9

8:                                                ; preds = %1
  store i32 0, ptr %2, align 4
  br label %17

9:                                                ; preds = %1
  %10 = load ptr, ptr %3, align 8, !tbaa !3
  %11 = getelementptr inbounds nuw %struct._lv_obj_t, ptr %10, i32 0, i32 2
  %12 = load ptr, ptr %11, align 8, !tbaa !9
  %13 = getelementptr inbounds nuw %struct._lv_obj_spec_attr_t, ptr %12, i32 0, i32 3
  %14 = getelementptr inbounds nuw %struct.lv_point_t, ptr %13, i32 0, i32 0
  %15 = load i32, ptr %14, align 8, !tbaa !13
  %16 = sub nsw i32 0, %15
  store i32 %16, ptr %2, align 4
  br label %17

17:                                               ; preds = %9, %8
  %18 = load i32, ptr %2, align 4
  ret i32 %18
}

; Function Attrs: nounwind uwtable
define void @lv_obj_scroll_to_y(ptr noundef %0, i32 noundef %1, i32 noundef %2) #0 {
  %4 = alloca ptr, align 8
  %5 = alloca i32, align 4
  %6 = alloca i32, align 4
  %7 = alloca i32, align 4
  %8 = alloca i32, align 4
  store ptr %0, ptr %4, align 8, !tbaa !3
  store i32 %1, ptr %5, align 4, !tbaa !7
  store i32 %2, ptr %6, align 4, !tbaa !7
  %9 = load ptr, ptr %4, align 8, !tbaa !3
  %10 = call zeroext i1 @lv_anim_delete(ptr noundef %9, ptr noundef @scroll_y_anim)
  call void @llvm.lifetime.start.p0(i64 4, ptr %7) #5
  %11 = load ptr, ptr %4, align 8, !tbaa !3
  %12 = call i32 @lv_obj_get_scroll_y(ptr noundef %11)
  store i32 %12, ptr %7, align 4, !tbaa !7
  call void @llvm.lifetime.start.p0(i64 4, ptr %8) #5
  %13 = load i32, ptr %5, align 4, !tbaa !7
  %14 = sub nsw i32 0, %13
  %15 = load i32, ptr %7, align 4, !tbaa !7
  %16 = add nsw i32 %14, %15
  store i32 %16, ptr %8, align 4, !tbaa !7
  %17 = load ptr, ptr %4, align 8, !tbaa !3
  %18 = load i32, ptr %8, align 4, !tbaa !7
  %19 = load i32, ptr %6, align 4, !tbaa !7
  call void @lv_obj_scroll_by_bounded(ptr noundef %17, i32 noundef 0, i32 noundef %18, i32 noundef %19)
  call void @llvm.lifetime.end.p0(i64 4, ptr %8) #5
  call void @llvm.lifetime.end.p0(i64 4, ptr %7) #5
  ret void
}

; Function Attrs: nounwind uwtable
define void @lv_obj_scroll_to_x(ptr noundef %0, i32 noundef %1, i32 noundef %2) #0 {
  %4 = alloca ptr, align 8
  %5 = alloca i32, align 4
  %6 = alloca i32, align 4
  %7 = alloca i32, align 4
  %8 = alloca i32, align 4
  store ptr %0, ptr %4, align 8, !tbaa !3
  store i32 %1, ptr %5, align 4, !tbaa !7
  store i32 %2, ptr %6, align 4, !tbaa !7
  %9 = load ptr, ptr %4, align 8, !tbaa !3
  %10 = call zeroext i1 @lv_anim_delete(ptr noundef %9, ptr noundef @scroll_x_anim)
  call void @llvm.lifetime.start.p0(i64 4, ptr %7) #5
  %11 = load ptr, ptr %4, align 8, !tbaa !3
  %12 = call i32 @lv_obj_get_scroll_x(ptr noundef %11)
  store i32 %12, ptr %7, align 4, !tbaa !7
  call void @llvm.lifetime.start.p0(i64 4, ptr %8) #5
  %13 = load i32, ptr %5, align 4, !tbaa !7
  %14 = sub nsw i32 0, %13
  %15 = load i32, ptr %7, align 4, !tbaa !7
  %16 = add nsw i32 %14, %15
  store i32 %16, ptr %8, align 4, !tbaa !7
  %17 = load ptr, ptr %4, align 8, !tbaa !3
  %18 = load i32, ptr %8, align 4, !tbaa !7
  %19 = load i32, ptr %6, align 4, !tbaa !7
  call void @lv_obj_scroll_by_bounded(ptr noundef %17, i32 noundef %18, i32 noundef 0, i32 noundef %19)
  call void @llvm.lifetime.end.p0(i64 4, ptr %8) #5
  call void @llvm.lifetime.end.p0(i64 4, ptr %7) #5
  ret void
}

; Function Attrs: nounwind uwtable
define void @lv_obj_scroll_to(ptr noundef %0, i32 noundef %1, i32 noundef %2, i32 noundef %3) #0 {
  %5 = alloca ptr, align 8
  %6 = alloca i32, align 4
  %7 = alloca i32, align 4
  %8 = alloca i32, align 4
  store ptr %0, ptr %5, align 8, !tbaa !3
  store i32 %1, ptr %6, align 4, !tbaa !7
  store i32 %2, ptr %7, align 4, !tbaa !7
  store i32 %3, ptr %8, align 4, !tbaa !7
  %9 = load ptr, ptr %5, align 8, !tbaa !3
  %10 = load i32, ptr %6, align 4, !tbaa !7
  %11 = load i32, ptr %8, align 4, !tbaa !7
  call void @lv_obj_scroll_to_x(ptr noundef %9, i32 noundef %10, i32 noundef %11)
  %12 = load ptr, ptr %5, align 8, !tbaa !3
  %13 = load i32, ptr %7, align 4, !tbaa !7
  %14 = load i32, ptr %8, align 4, !tbaa !7
  call void @lv_obj_scroll_to_y(ptr noundef %12, i32 noundef %13, i32 noundef %14)
  ret void
}