; Function Attrs: nounwind uwtable
define void @lv_obj_scroll_to(ptr noundef %0, i32 noundef %1, i32 noundef %2, i32 noundef %3) local_unnamed_addr #0 {
  %5 = tail call zeroext i1 @lv_anim_delete(ptr noundef %0, ptr noundef nonnull @scroll_x_anim) #5
  %6 = getelementptr inbounds nuw i8, ptr %0, i64 16
  %7 = load ptr, ptr %6, align 8, !tbaa !3
  %8 = icmp eq ptr %7, null
  br i1 %8, label %lv_obj_scroll_to_x.exit, label %9

9:                                                ; preds = %4
  %10 = getelementptr inbounds nuw i8, ptr %7, i64 48
  %11 = load i32, ptr %10, align 8, !tbaa !11
  %12 = sub nsw i32 0, %11
  br label %lv_obj_scroll_to_x.exit

lv_obj_scroll_to_x.exit:                          ; preds = %4, %9
  %.0.i.i = phi i32 [ %12, %9 ], [ 0, %4 ]
  %13 = sub nsw i32 %.0.i.i, %1
  tail call void @lv_obj_scroll_by_bounded(ptr noundef nonnull %0, i32 noundef %13, i32 noundef 0, i32 noundef %3)
  %14 = tail call zeroext i1 @lv_anim_delete(ptr noundef nonnull %0, ptr noundef nonnull @scroll_y_anim) #5
  %15 = load ptr, ptr %6, align 8, !tbaa !3
  %16 = icmp eq ptr %15, null
  br i1 %16, label %lv_obj_scroll_to_y.exit, label %17

17:                                               ; preds = %lv_obj_scroll_to_x.exit
  %18 = getelementptr inbounds nuw i8, ptr %15, i64 52
  %19 = load i32, ptr %18, align 4, !tbaa !17
  %20 = sub nsw i32 0, %19
  br label %lv_obj_scroll_to_y.exit

lv_obj_scroll_to_y.exit:                          ; preds = %lv_obj_scroll_to_x.exit, %17
  %.0.i.i5 = phi i32 [ %20, %17 ], [ 0, %lv_obj_scroll_to_x.exit ]
  %21 = sub nsw i32 %.0.i.i5, %2
  tail call void @lv_obj_scroll_by_bounded(ptr noundef nonnull %0, i32 noundef 0, i32 noundef %21, i32 noundef %3)
  ret void
}